Certificate:
    Data:
        Version: 3 (0x2)
        Serial Number:
            9b:db:7b:39:9c:be:be:6c:72:4d:f4:25:e3:5f:bd:7f
    Signature Algorithm: sha256WithRSAEncryption
        Issuer: CN=Easy-RSA CA
        Validity
            Not Before: Jul  2 13:04:16 2019 GMT
            Not After : Jun 29 13:04:16 2029 GMT
        Subject: CN=client
        Subject Public Key Info:
            Public Key Algorithm: rsaEncryption
                Public-Key: (2048 bit)
                Modulus:
                    00:ca:91:db:74:7e:cc:78:72:21:36:a4:6e:76:e3:
                    a8:cc:a0:1a:b9:35:db:c4:ae:7a:01:eb:07:8f:7a:
                    79:c8:29:f6:9a:9b:37:41:fb:6c:3a:ef:f3:5a:1c:
                    93:32:33:6b:4b:b8:6e:1e:27:82:e0:6e:97:2c:26:
                    0d:ef:5b:55:e6:b7:66:80:06:b5:21:28:ca:fd:50:
                    d7:ac:c6:f1:1b:b2:ee:d1:0c:ad:a7:be:66:23:9d:
                    66:86:bc:95:11:6a:4b:a6:3b:6a:23:04:b3:e8:8f:
                    52:65:79:eb:f1:97:7a:77:53:2f:d2:a5:bb:9b:b5:
                    7c:7d:15:d8:b8:12:70:3c:64:aa:e1:1b:62:e9:2b:
                    1b:6c:56:15:fe:c1:b9:80:e6:5f:48:87:ec:d0:43:
                    fc:cc:81:3f:55:d1:43:51:1b:77:ea:76:e3:05:51:
                    d3:81:c1:a4:b7:66:e4:cc:0b:60:34:63:75:8a:dd:
                    6f:26:0e:a1:5c:45:f1:40:ea:55:9b:32:36:cf:63:
                    6a:d6:7c:d1:f0:66:71:23:5e:1f:ac:87:72:5b:07:
                    9a:4f:dc:d9:79:9a:1a:35:ad:a8:fe:c8:bc:2e:3b:
                    0e:fb:60:1b:be:41:15:a3:a8:82:f6:66:39:d3:2d:
                    22:5d:6a:f2:89:53:40:a2:d1:9e:83:38:74:d0:b2:
                    09:bb
                Exponent: 65537 (0x10001)
        X509v3 extensions:
            X509v3 Basic Constraints: 
                CA:FALSE
            X509v3 Subject Key Identifier: 
                11:4F:9C:B2:1B:4F:62:E6:90:18:AD:03:94:26:AA:F9:F2:1F:96:DB
            X509v3 Authority Key Identifier: 
                keyid:6E:4B:3B:83:51:7C:ED:BF:4A:55:CA:06:CB:B2:F9:33:A9:1C:EB:26
                DirName:/CN=Easy-RSA CA
                serial:AF:4A:46:35:04:25:91:E1

            X509v3 Extended Key Usage: 
                TLS Web Client Authentication
            X509v3 Key Usage: 
                Digital Signature
    Signature Algorithm: sha256WithRSAEncryption
         aa:ca:a3:d0:e1:ef:b9:cf:6c:05:79:35:f0:a1:4b:51:67:f4:
         cb:b5:07:83:b1:fb:9b:a8:70:d8:30:84:db:4c:33:3b:fb:93:
         08:50:79:6a:46:f3:84:84:09:8c:26:5c:c2:1b:d4:8a:0e:b4:
         43:4e:df:64:ec:3e:61:c0:04:5c:78:d2:2d:60:38:21:b1:2f:
         59:68:a1:96:20:c8:5a:be:59:8d:ff:b7:a2:07:5f:22:c1:ae:
         6b:d6:6f:4e:73:2b:cc:a7:36:5c:56:2a:df:82:32:5c:31:41:
         41:7c:b4:ac:d1:a5:b7:7f:fc:59:30:9a:ef:ba:ed:f6:06:da:
         d1:42:4e:09:0b:1b:1a:f6:94:ff:8d:de:57:70:ec:f5:37:8d:
         b9:28:8f:18:3a:39:e6:3f:3f:02:1f:b5:9f:a3:07:5c:9f:ff:
         9d:3f:3a:9a:20:9d:ac:27:30:a4:a9:3b:ce:79:d2:9c:5f:bb:
         03:5f:74:f3:84:97:b7:52:34:3a:1d:7d:c4:1a:1c:db:df:06:
         20:22:89:0f:27:09:fe:99:0a:e5:81:a7:61:fd:29:0f:74:e7:
         9c:c1:8a:13:82:e7:89:2d:67:3f:8f:54:90:9a:0b:4d:a0:1b:
         17:17:3b:f8:a8:b1:ef:bc:4f:e9:68:1f:ea:43:61:c6:1c:17:
         1d:d6:a2:f2
-----BEGIN CERTIFICATE-----
MIIDSjCCAjKgAwIBAgIRAJvbezmcvr5sck30JeNfvX8wDQYJKoZIhvcNAQELBQAw
FjEUMBIGA1UEAwwLRWFzeS1SU0EgQ0EwHhcNMTkwNzAyMTMwNDE2WhcNMjkwNjI5
MTMwNDE2WjARMQ8wDQYDVQQDDAZjbGllbnQwggEiMA0GCSqGSIb3DQEBAQUAA4IB
DwAwggEKAoIBAQDKkdt0fsx4ciE2pG5246jMoBq5NdvErnoB6wePennIKfaamzdB
+2w67/NaHJMyM2tLuG4eJ4LgbpcsJg3vW1Xmt2aABrUhKMr9UNesxvEbsu7RDK2n
vmYjnWaGvJURakumO2ojBLPoj1Jleevxl3p3Uy/SpbubtXx9Fdi4EnA8ZKrhG2Lp
KxtsVhX+wbmA5l9Ih+zQQ/zMgT9V0UNRG3fqduMFUdOBwaS3ZuTMC2A0Y3WK3W8m
DqFcRfFA6lWbMjbPY2rWfNHwZnEjXh+sh3JbB5pP3Nl5mho1raj+yLwuOw77YBu+
QRWjqIL2ZjnTLSJdavKJU0Ci0Z6DOHTQsgm7AgMBAAGjgZcwgZQwCQYDVR0TBAIw
ADAdBgNVHQ4EFgQUEU+cshtPYuaQGK0DlCaq+fIfltswRgYDVR0jBD8wPYAUbks7
g1F87b9KVcoGy7L5M6kc6yahGqQYMBYxFDASBgNVBAMMC0Vhc3ktUlNBIENBggkA
r0pGNQQlkeEwEwYDVR0lBAwwCgYIKwYBBQUHAwIwCwYDVR0PBAQDAgeAMA0GCSqG
SIb3DQEBCwUAA4IBAQCqyqPQ4e+5z2wFeTXwoUtRZ/TLtQeDsfubqHDYMITbTDM7
+5MIUHlqRvOEhAmMJlzCG9SKDrRDTt9k7D5hwARceNItYDghsS9ZaKGWIMhavlmN
/7eiB18iwa5r1m9OcyvMpzZcVirfgjJcMUFBfLSs0aW3f/xZMJrvuu32BtrRQk4J
Cxsa9pT/jd5XcOz1N425KI8YOjnmPz8CH7Wfowdcn/+dPzqaIJ2sJzCkqTvOedKc
X7sDX3TzhJe3UjQ6HX3EGhzb3wYgIokPJwn+mQrlgadh/SkPdOecwYoTgueJLWc/
j1SQmgtNoBsXFzv4qLHvvE/paB/qQ2HGHBcd1qLy
-----END CERTIFICATE-----
